(dp0
cnumpy.core.multiarray
scalar
p1
(cnumpy
dtype
p2
(S'i8'
p3
I0
I1
tp4
Rp5
(I3
S'<'
p6
NNNI-1
I-1
I0
tp7
bS'\x1d\x00\x00\x00\x00\x00\x00\x00'
p8
tp9
Rp10
ccollections
defaultdict
p11
(c__builtin__
str
p12
tp13
Rp14
S'7'
p15
(lp16
S'2'
p17
aS'3'
p18
aS'5'
p19
aS'6'
p20
aS'7'
p21
asS'6'
p22
(lp23
S'1'
p24
aS'3'
p25
aS'4'
p26
aS'5'
p27
aS'6'
p28
assg1
(g5
S'\x1e\x00\x00\x00\x00\x00\x00\x00'
p29
tp30
Rp31
g11
(g12
tp32
Rp33
S'5'
p34
(lp35
S'3'
p36
aS'4'
p37
aS'5'
p38
aS'6'
p39
aS'7'
p40
assg1
(g5
S' \x00\x00\x00\x00\x00\x00\x00'
p41
tp42
Rp43
g11
(g12
tp44
Rp45
S'4'
p46
(lp47
S'2'
p48
aS'9'
p49
asg15
(lp50
g17
ag18
aS'4'
p51
ag19
ag20
ag21
asS'6'
p52
(lp53
S'2'
p54
ag27
assg1
(g5
S'!\x00\x00\x00\x00\x00\x00\x00'
p55
tp56
Rp57
g11
(g12
tp58
Rp59
S'5'
p60
(lp61
S'2'
p62
aS'3'
p63
aS'4'
p64
ag38
ag39
ag40
asg46
(lp65
g48
aS'3'
p66
aS'4'
p67
aS'5'
p68
aS'6'
p69
aS'7'
p70
aS'8'
p71
aS'9'
p72
asg15
(lp73
g17
ag18
ag51
ag19
ag20
ag21
assg1
(g5
S'"\x00\x00\x00\x00\x00\x00\x00'
p74
tp75
Rp76
g11
(g12
tp77
Rp78
S'8'
p79
(lp80
S'1'
p81
aS'2'
p82
aS'4'
p83
aS'5'
p84
aS'6'
p85
asg60
(lp86
g62
ag37
asS'6'
p87
(lp88
g25
ag26
ag27
ag28
assg1
(g5
S'#\x00\x00\x00\x00\x00\x00\x00'
p89
tp90
Rp91
g11
(g12
tp92
Rp93
S'5'
p94
(lp95
S'1'
p96
aS'2'
p97
ag63
ag37
ag39
ag40
asS'4'
p98
(lp99
S'6'
p100
ag70
aS'8'
p101
ag49
asg52
(lp102
g54
ag25
ag27
assg1
(g5
S'%\x00\x00\x00\x00\x00\x00\x00'
p103
tp104
Rp105
g11
(g12
tp106
Rp107
g60
(lp108
g62
ag63
ag64
ag38
ag39
ag40
asS'4'
p109
(lp110
g69
ag70
ag71
ag49
asS'7'
p111
(lp112
S'1'
p113
ag51
assg1
(g5
S'&\x00\x00\x00\x00\x00\x00\x00'
p114
tp115
Rp116
g11
(g12
tp117
Rp118
g79
(lp119
g81
ag82
ag83
ag84
ag85
asS'5'
p120
(lp121
g63
ag37
ag38
ag39
ag40
asS'7'
p122
(lp123
g51
ag19
ag20
ag21
asg52
(lp124
g54
ag25
ag27
ag28
assg1
(g5
S"'\x00\x00\x00\x00\x00\x00\x00"
p125
tp126
Rp127
g11
(g12
tp128
Rp129
g79
(lp130
g81
ag82
ag83
ag84
ag85
asg60
(lp131
g62
ag63
ag37
ag38
ag39
ag40
asS'4'
p132
(lp133
g66
ag67
aS'5'
p134
ag69
ag70
ag71
ag49
asg111
(lp135
g113
ag17
ag18
ag19
ag20
ag21
asg22
(lp136
g24
ag25
ag26
ag27
ag28
assg1
(g5
S')\x00\x00\x00\x00\x00\x00\x00'
p137
tp138
Rp139
g11
(g12
tp140
Rp141
S'5'
p142
(lp143
g40
asg52
(lp144
g54
ag25
ag26
ag27
aS'6'
p145
assg1
(g5
S'*\x00\x00\x00\x00\x00\x00\x00'
p146
tp147
Rp148
g11
(g12
tp149
Rp150
g109
(lp151
g69
ag70
ag71
ag49
asg87
(lp152
g25
assg1
(g5
S'+\x00\x00\x00\x00\x00\x00\x00'
p153
tp154
Rp155
g11
(g12
tp156
Rp157
g60
(lp158
g62
ag64
ag38
ag39
ag40
asg109
(lp159
g69
ag70
ag71
ag49
assg1
(g5
S'-\x00\x00\x00\x00\x00\x00\x00'
p160
tp161
Rp162
g11
(g12
tp163
Rp164
g79
(lp165
g81
ag82
ag83
ag84
ag85
asg46
(lp166
g48
ag66
ag67
ag68
ag69
aS'7'
p167
ag71
ag49
asg15
(lp168
g17
ag18
ag51
ag19
ag20
ag21
asg87
(lp169
g25
ag26
ag27
ag145
assg1
(g5
S'.\x00\x00\x00\x00\x00\x00\x00'
p170
tp171
Rp172
g11
(g12
tp173
Rp174
S'8'
p175
(lp176
g83
ag84
ag85
asS'5'
p177
(lp178
S'2'
p179
ag63
ag64
ag38
ag39
ag40
asg109
(lp180
g69
ag70
ag71
ag49
asg111
(lp181
g113
ag17
ag18
ag19
ag20
ag21
assg1
(g5
S'/\x00\x00\x00\x00\x00\x00\x00'
p182
tp183
Rp184
g11
(g12
tp185
Rp186
g94
(lp187
g96
ag62
ag64
ag39
ag40
assg1
(g5
S'0\x00\x00\x00\x00\x00\x00\x00'
p188
tp189
Rp190
g11
(g12
tp191
Rp192
g175
(lp193
g83
ag84
ag85
asS'5'
p194
(lp195
g38
ag40
asg111
(lp196
g113
ag17
ag18
ag19
ag20
ag21
asS'6'
p197
(lp198
g26
ag27
ag28
assg1
(g5
S'1\x00\x00\x00\x00\x00\x00\x00'
p199
tp200
Rp201
g11
(g12
tp202
Rp203
g94
(lp204
g96
ag63
ag64
asg15
(lp205
g17
ag18
ag51
ag19
ag20
ag21
asS'6'
p206
(lp207
g28
assg1
(g5
S'2\x00\x00\x00\x00\x00\x00\x00'
p208
tp209
Rp210
g11
(g12
tp211
Rp212
g79
(lp213
g81
ag82
ag83
ag84
ag85
asg15
(lp214
g17
ag18
ag51
ag19
ag20
ag21
assg1
(g5
S'3\x00\x00\x00\x00\x00\x00\x00'
p215
tp216
Rp217
g11
(g12
tp218
Rp219
g79
(lp220
g81
ag82
ag83
ag84
ag85
asS'5'
p221
(lp222
g64
ag38
ag39
ag40
asg197
(lp223
g26
ag27
ag28
assg1
(g5
S'4\x00\x00\x00\x00\x00\x00\x00'
p224
tp225
Rp226
g11
(g12
tp227
Rp228
g15
(lp229
g17
ag18
ag51
ag19
ag20
ag21
assg1
(g5
S'5\x00\x00\x00\x00\x00\x00\x00'
p230
tp231
Rp232
g11
(g12
tp233
Rp234
g60
(lp235
g62
ag63
ag37
ag38
ag39
ag40
asg109
(lp236
g69
ag70
ag71
ag49
asg15
(lp237
g17
ag18
ag51
ag19
ag20
ag21
asg197
(lp238
g26
ag27
ag28
assg1
(g5
S'7\x00\x00\x00\x00\x00\x00\x00'
p239
tp240
Rp241
g11
(g12
tp242
Rp243
g175
(lp244
g83
ag84
ag85
asS'5'
p245
(lp246
g37
ag38
ag39
ag40
asg111
(lp247
g113
ag17
aS'4'
p248
ag19
ag20
ag21
asg87
(lp249
g25
ag26
aS'5'
p250
ag145
assg1
(g5
S'8\x00\x00\x00\x00\x00\x00\x00'
p251
tp252
Rp253
g11
(g12
tp254
Rp255
g120
(lp256
g63
ag64
ag38
aS'6'
p257
ag40
asg109
(lp258
g69
ag70
ag71
ag49
asg52
(lp259
g54
ag25
ag27
ag28
assg1
(g5
S'9\x00\x00\x00\x00\x00\x00\x00'
p260
tp261
Rp262
g11
(g12
tp263
Rp264
sg1
(g5
S':\x00\x00\x00\x00\x00\x00\x00'
p265
tp266
Rp267
g11
(g12
tp268
Rp269
g60
(lp270
g62
ag63
ag64
ag38
ag39
ag40
assg1
(g5
S';\x00\x00\x00\x00\x00\x00\x00'
p271
tp272
Rp273
g11
(g12
tp274
Rp275
g52
(lp276
g54
aS'4'
p277
ag27
assg1
(g5
S'<\x00\x00\x00\x00\x00\x00\x00'
p278
tp279
Rp280
g11
(g12
tp281
Rp282
g60
(lp283
g62
ag63
ag64
ag38
ag257
aS'7'
p284
asg109
(lp285
g69
ag70
ag71
ag49
asS'6'
p286
(lp287
S'3'
p288
ag277
ag27
ag145
assg1
(g5
S'>\x00\x00\x00\x00\x00\x00\x00'
p289
tp290
Rp291
g11
(g12
tp292
Rp293
g79
(lp294
g81
ag82
ag83
ag84
ag85
asg177
(lp295
g179
ag63
ag64
ag38
ag39
ag40
assg1
(g5
S'?\x00\x00\x00\x00\x00\x00\x00'
p296
tp297
Rp298
g11
(g12
tp299
Rp300
g94
(lp301
g96
ag179
ag63
ag64
ag257
ag40
asg87
(lp302
g25
ag26
ag27
ag28
assg1
(g5
S'@\x00\x00\x00\x00\x00\x00\x00'
p303
tp304
Rp305
g11
(g12
tp306
Rp307
g60
(lp308
g62
ag36
ag64
ag38
ag39
ag40
asS'6'
p309
(lp310
g27
assg1
(g5
S'A\x00\x00\x00\x00\x00\x00\x00'
p311
tp312
Rp313
g11
(g12
tp314
Rp315
g60
(lp316
g62
ag63
ag64
ag38
ag39
ag40
asg132
(lp317
g66
aS'4'
p318
asg87
(lp319
g25
ag26
ag27
ag28
assg1
(g5
S'B\x00\x00\x00\x00\x00\x00\x00'
p320
tp321
Rp322
g11
(g12
tp323
Rp324
g79
(lp325
g81
ag82
ag83
ag84
ag85
asg177
(lp326
g179
ag63
ag64
ag38
ag39
ag40
asg109
(lp327
g69
ag70
ag71
aS'9'
p328
asg22
(lp329
g24
ag54
ag26
ag27
ag28
assg1
(g5
S'C\x00\x00\x00\x00\x00\x00\x00'
p330
tp331
Rp332
g11
(g12
tp333
Rp334
g79
(lp335
g81
ag82
ag83
ag84
ag85
asS'5'
p336
(lp337
S'3'
p338
asg197
(lp339
g26
ag27
ag145
assg1
(g5
S'E\x00\x00\x00\x00\x00\x00\x00'
p340
tp341
Rp342
g11
(g12
tp343
Rp344
g79
(lp345
g81
ag82
ag83
ag84
ag85
asg60
(lp346
g62
ag36
ag64
ag38
ag39
ag40
asg109
(lp347
g69
ag70
ag71
ag49
asg15
(lp348
g17
ag18
ag19
ag20
ag21
asg197
(lp349
g26
ag27
ag28
assg1
(g5
S'F\x00\x00\x00\x00\x00\x00\x00'
p350
tp351
Rp352
g11
(g12
tp353
Rp354
g336
(lp355
g338
ag64
ag38
ag39
ag40
asg197
(lp356
g26
ag27
ag28
assg1
(g5
S'H\x00\x00\x00\x00\x00\x00\x00'
p357
tp358
Rp359
g11
(g12
tp360
Rp361
g94
(lp362
g96
ag36
ag38
ag39
ag40
asg109
(lp363
g69
ag70
asg15
(lp364
g17
ag19
ag20
ag21
asS'6'
p365
(lp366
S'1'
p367
ag25
ag27
assg1
(g5
S'J\x00\x00\x00\x00\x00\x00\x00'
p368
tp369
Rp370
g11
(g12
tp371
Rp372
sg1
(g5
S'O\x00\x00\x00\x00\x00\x00\x00'
p373
tp374
Rp375
g11
(g12
tp376
Rp377
g94
(lp378
g96
ag338
ag64
ag38
ag39
ag40
asg46
(lp379
g48
ag66
ag67
ag134
ag69
ag70
ag71
ag49
asg22
(lp380
g24
ag25
ag26
ag27
ag28
assg1
(g5
S'Q\x00\x00\x00\x00\x00\x00\x00'
p381
tp382
Rp383
g11
(g12
tp384
Rp385
g79
(lp386
g81
ag82
ag83
ag84
ag85
asg60
(lp387
g62
ag63
ag64
ag38
ag39
ag40
asS'4'
p388
(lp389
S'5'
p390
ag69
ag70
ag71
ag49
asS'6'
p391
(lp392
g277
ag27
assg1
(g5
S'T\x00\x00\x00\x00\x00\x00\x00'
p393
tp394
Rp395
g11
(g12
tp396
Rp397
g221
(lp398
g64
ag38
ag39
ag40
asS'4'
p399
(lp400
g68
ag70
asg15
(lp401
g17
ag18
ag51
ag19
ag20
ag21
asg197
(lp402
g26
ag27
ag28
assg1
(g5
S'U\x00\x00\x00\x00\x00\x00\x00'
p403
tp404
Rp405
g11
(g12
tp406
Rp407
g175
(lp408
g83
ag84
ag85
asg177
(lp409
g179
ag36
ag64
ag38
ag39
ag40
asg111
(lp410
g113
ag18
ag51
ag19
ag20
ag21
asg197
(lp411
g26
ag27
ag28
assg1
(g5
S'W\x00\x00\x00\x00\x00\x00\x00'
p412
tp413
Rp414
g11
(g12
tp415
Rp416
g94
(lp417
g96
ag37
ag38
ag39
ag40
asg15
(lp418
g17
ag18
ag19
ag20
ag21
assg1
(g5
S'Y\x00\x00\x00\x00\x00\x00\x00'
p419
tp420
Rp421
g11
(g12
tp422
Rp423
g79
(lp424
g81
ag82
ag83
ag84
asg177
(lp425
g179
ag64
ag38
ag39
ag40
assg1
(g5
S'[\x00\x00\x00\x00\x00\x00\x00'
p426
tp427
Rp428
g11
(g12
tp429
Rp430
g15
(lp431
g17
ag18
ag19
ag20
ag21
asg197
(lp432
g26
ag27
ag28
assg1
(g5
S'\\\x00\x00\x00\x00\x00\x00\x00'
p433
tp434
Rp435
g11
(g12
tp436
Rp437
g60
(lp438
g62
ag36
ag64
ag38
ag39
ag40
asg52
(lp439
g54
ag25
ag277
ag27
ag28
assg1
(g5
S']\x00\x00\x00\x00\x00\x00\x00'
p440
tp441
Rp442
g11
(g12
tp443
Rp444
g94
(lp445
g96
ag179
ag36
ag38
ag39
ag40
asS'4'
p446
(lp447
g49
asg15
(lp448
g17
ag18
ag20
ag21
asg87
(lp449
g25
ag26
ag27
ag28
assg1
(g5
S'^\x00\x00\x00\x00\x00\x00\x00'
p450
tp451
Rp452
g11
(g12
tp453
Rp454
g221
(lp455
g64
ag38
ag39
ag40
asg52
(lp456
g54
ag25
ag26
ag27
ag28
assg1
(g5
S'_\x00\x00\x00\x00\x00\x00\x00'
p457
tp458
Rp459
g11
(g12
tp460
Rp461
g60
(lp462
g62
ag63
ag64
assg1
(g5
S'`\x00\x00\x00\x00\x00\x00\x00'
p463
tp464
Rp465
g11
(g12
tp466
Rp467
S'5'
p468
(lp469
g39
ag40
asg109
(lp470
g69
ag70
ag71
ag328
asg87
(lp471
g25
ag26
ag27
ag28
assg1
(g5
S'c\x00\x00\x00\x00\x00\x00\x00'
p472
tp473
Rp474
g11
(g12
tp475
Rp476
g79
(lp477
g81
ag82
ag83
ag85
asg94
(lp478
g96
ag63
ag64
ag38
ag39
ag40
asg132
(lp479
g66
ag67
ag68
ag69
ag70
ag71
ag49
asg122
(lp480
g51
ag19
ag20
ag21
asg87
(lp481
g25
ag277
ag27
ag145
assg1
(g5
S'd\x00\x00\x00\x00\x00\x00\x00'
p482
tp483
Rp484
g11
(g12
tp485
Rp486
g60
(lp487
g62
ag63
ag64
ag38
ag39
ag40
asS'7'
p488
(lp489
g18
ag51
ag19
ag20
ag21
assg1
(g5
S'e\x00\x00\x00\x00\x00\x00\x00'
p490
tp491
Rp492
g11
(g12
tp493
Rp494
g79
(lp495
g81
ag82
ag83
ag85
asg94
(lp496
g96
ag63
ag64
ag38
ag39
ag40
asg46
(lp497
g48
ag66
ag67
ag390
ag70
ag71
ag72
asg15
(lp498
g17
ag18
ag51
ag19
ag20
ag21
asg87
(lp499
g25
ag26
ag27
ag28
assg1
(g5
S'f\x00\x00\x00\x00\x00\x00\x00'
p500
tp501
Rp502
g11
(g12
tp503
Rp504
g120
(lp505
g63
aS'4'
p506
ag38
ag39
ag40
asg132
(lp507
g66
ag67
ag134
ag69
ag70
ag71
ag49
asS'7'
p508
(lp509
g19
ag20
ag21
assg1
(g5
S'g\x00\x00\x00\x00\x00\x00\x00'
p510
tp511
Rp512
g11
(g12
tp513
Rp514
g60
(lp515
g62
ag63
ag64
ag38
ag39
ag40
assg1
(g5
S'h\x00\x00\x00\x00\x00\x00\x00'
p516
tp517
Rp518
g11
(g12
tp519
Rp520
g175
(lp521
g83
ag84
ag85
asg15
(lp522
g17
ag18
ag51
ag20
ag21
asg197
(lp523
g26
ag27
ag28
assg1
(g5
S'i\x00\x00\x00\x00\x00\x00\x00'
p524
tp525
Rp526
g11
(g12
tp527
Rp528
g177
(lp529
g179
ag63
ag64
ag38
ag39
ag40
asg15
(lp530
g17
ag18
ag51
ag19
ag20
ag21
asg197
(lp531
g26
ag27
ag28
assg1
(g5
S'j\x00\x00\x00\x00\x00\x00\x00'
p532
tp533
Rp534
g11
(g12
tp535
Rp536
g79
(lp537
g81
ag82
ag83
ag84
ag85
asg245
(lp538
g37
ag38
ag39
ag40
asg109
(lp539
g69
ag70
ag71
ag49
asg197
(lp540
g26
ag27
ag28
assg1
(g5
S'l\x00\x00\x00\x00\x00\x00\x00'
p541
tp542
Rp543
g11
(g12
tp544
Rp545
g132
(lp546
g66
ag67
ag68
ag69
ag70
ag71
ag49
asg15
(lp547
g17
ag18
ag51
ag19
ag20
ag21
asg22
(lp548
g24
ag25
ag26
ag27
ag28
assg1
(g5
S'm\x00\x00\x00\x00\x00\x00\x00'
p549
tp550
Rp551
g11
(g12
tp552
Rp553
g60
(lp554
g62
ag63
ag64
ag38
ag39
ag40
asg399
(lp555
g68
ag69
ag70
ag71
ag49
asg87
(lp556
g25
ag26
ag27
ag28
assg1
(g5
S'n\x00\x00\x00\x00\x00\x00\x00'
p557
tp558
Rp559
g11
(g12
tp560
Rp561
g177
(lp562
g179
ag63
ag64
ag38
ag39
ag40
asg132
(lp563
g66
ag67
ag69
ag70
ag71
ag49
asg111
(lp564
g113
ag17
ag51
ag19
ag20
ag21
asg52
(lp565
g54
ag25
ag26
ag27
assg1
(g5
S'o\x00\x00\x00\x00\x00\x00\x00'
p566
tp567
Rp568
g11
(g12
tp569
Rp570
S'8'
p571
(lp572
g82
ag83
ag84
asg15
(lp573
g17
ag18
ag19
ag20
ag21
asg87
(lp574
g25
ag27
ag28
assg1
(g5
S'p\x00\x00\x00\x00\x00\x00\x00'
p575
tp576
Rp577
g11
(g12
tp578
Rp579
S'5'
p580
(lp581
g97
ag63
ag37
ag38
ag39
ag40
asg109
(lp582
g69
ag70
ag71
ag49
asg15
(lp583
g17
ag18
ag51
ag19
ag20
ag21
asg52
(lp584
g54
ag26
ag28
assg1
(g5
S'q\x00\x00\x00\x00\x00\x00\x00'
p585
tp586
Rp587
g11
(g12
tp588
Rp589
g120
(lp590
g63
ag64
ag38
ag39
ag40
asg15
(lp591
g17
ag18
ag51
ag19
ag20
ag21
asg197
(lp592
g26
ag27
ag28
assg1
(g5
S'r\x00\x00\x00\x00\x00\x00\x00'
p593
tp594
Rp595
g11
(g12
tp596
Rp597
g571
(lp598
g82
ag83
ag84
ag85
asg120
(lp599
g63
ag64
ag38
ag39
ag40
asg111
(lp600
g113
ag18
ag51
ag19
ag20
ag21
asg197
(lp601
g26
ag27
ag28
assg1
(g5
S's\x00\x00\x00\x00\x00\x00\x00'
p602
tp603
Rp604
g11
(g12
tp605
Rp606
g175
(lp607
g83
ag84
ag85
asg60
(lp608
g62
ag338
ag64
asg46
(lp609
g48
ag66
ag67
ag68
ag69
ag167
ag71
ag49
asg508
(lp610
g19
ag20
ag21
assg1
(g5
S't\x00\x00\x00\x00\x00\x00\x00'
p611
tp612
Rp613
g11
(g12
tp614
Rp615
g60
(lp616
g62
ag63
ag64
ag38
ag39
ag40
asg15
(lp617
g17
ag18
ag51
ag19
ag20
ag21
asg206
(lp618
g28
assg1
(g5
S'v\x00\x00\x00\x00\x00\x00\x00'
p619
tp620
Rp621
g11
(g12
tp622
Rp623
g94
(lp624
g96
ag62
ag63
ag37
ag40
asg111
(lp625
g113
ag51
ag19
ag20
ag21
asg52
(lp626
g54
ag25
ag277
ag27
assg1
(g5
S'x\x00\x00\x00\x00\x00\x00\x00'
p627
tp628
Rp629
g11
(g12
tp630
Rp631
g109
(lp632
g69
ag70
ag71
ag72
asg197
(lp633
g26
ag27
ag28
assg1
(g5
S'y\x00\x00\x00\x00\x00\x00\x00'
p634
tp635
Rp636
g11
(g12
tp637
Rp638
g79
(lp639
g81
ag82
ag83
ag84
ag85
asg468
(lp640
g39
asg111
(lp641
g113
ag17
ag51
ag19
ag20
ag21
asg87
(lp642
g25
ag26
ag27
ag28
assg1
(g5
S'z\x00\x00\x00\x00\x00\x00\x00'
p643
tp644
Rp645
g11
(g12
tp646
Rp647
g60
(lp648
g62
aS'3'
p649
ag64
ag38
ag39
ag40
asg15
(lp650
g17
ag21
assg1
(g5
S'{\x00\x00\x00\x00\x00\x00\x00'
p651
tp652
Rp653
g11
(g12
tp654
Rp655
g79
(lp656
g81
ag82
aS'3'
p657
ag83
ag84
asg60
(lp658
g62
ag36
ag506
ag38
ag39
ag40
asg399
(lp659
g68
ag70
ag71
ag49
asg22
(lp660
g24
ag25
ag26
ag27
ag28
assg1
(g5
S'|\x00\x00\x00\x00\x00\x00\x00'
p661
tp662
Rp663
g11
(g12
tp664
Rp665
g120
(lp666
g63
ag64
ag38
ag39
ag40
asg109
(lp667
g69
ag167
ag71
ag328
asg15
(lp668
g17
ag18
ag19
ag20
ag21
asg197
(lp669
g26
ag27
ag28
assg1
(g5
S'}\x00\x00\x00\x00\x00\x00\x00'
p670
tp671
Rp672
g11
(g12
tp673
Rp674
g571
(lp675
g82
ag83
ag84
ag85
asg336
(lp676
g338
ag64
ag38
ag39
ag40
assg1
(g5
S'~\x00\x00\x00\x00\x00\x00\x00'
p677
tp678
Rp679
g11
(g12
tp680
Rp681
g194
(lp682
g38
ag39
ag40
asg111
(lp683
g113
ag17
ag51
ag19
ag20
ag21
asg87
(lp684
g25
ag26
ag27
ag28
assg1
(g5
S'\x7f\x00\x00\x00\x00\x00\x00\x00'
p685
tp686
Rp687
g11
(g12
tp688
Rp689
g120
(lp690
g63
ag64
ag38
ag39
ag40
asS'7'
p691
(lp692
g21
asg286
(lp693
g288
assg1
(g5
S'\x80\x00\x00\x00\x00\x00\x00\x00'
p694
tp695
Rp696
g11
(g12
tp697
Rp698
g60
(lp699
g62
ag36
ag64
ag38
ag39
ag40
asg109
(lp700
g69
ag70
ag71
ag49
asg87
(lp701
g25
ag26
ag27
ag28
assg1
(g5
S'\x81\x00\x00\x00\x00\x00\x00\x00'
p702
tp703
Rp704
g11
(g12
tp705
Rp706
S'8'
p707
(lp708
g84
asg132
(lp709
g66
ag318
ag390
ag69
ag70
ag71
ag49
asg87
(lp710
g25
ag26
ag27
ag28
assg1
(g5
S'\x82\x00\x00\x00\x00\x00\x00\x00'
p711
tp712
Rp713
g11
(g12
tp714
Rp715
g79
(lp716
g81
ag82
ag83
ag84
ag85
asg177
(lp717
g179
ag36
ag64
asg15
(lp718
g17
ag51
ag19
ag20
ag21
asg22
(lp719
g24
ag25
ag26
ag27
ag28
assg1
(g5
S'\x83\x00\x00\x00\x00\x00\x00\x00'
p720
tp721
Rp722
g11
(g12
tp723
Rp724
g79
(lp725
g81
ag82
ag83
ag84
ag85
asg60
(lp726
g62
ag63
ag64
ag38
ag39
ag40
asg132
(lp727
g66
ag67
ag390
ag69
ag70
ag71
ag49
asg15
(lp728
g17
ag18
ag51
ag19
ag20
ag21
assg1
(g5
S'\x85\x00\x00\x00\x00\x00\x00\x00'
p729
tp730
Rp731
g11
(g12
tp732
Rp733
g468
(lp734
g39
ag40
asg109
(lp735
g69
ag70
ag71
ag49
asg15
(lp736
g17
ag18
ag51
ag19
ag20
ag21
asg197
(lp737
g26
ag27
ag28
assg1
(g5
S'\x86\x00\x00\x00\x00\x00\x00\x00'
p738
tp739
Rp740
g11
(g12
tp741
Rp742
g60
(lp743
g62
ag63
ag64
ag38
ag257
ag40
asg87
(lp744
g25
ag26
ag27
ag28
assg1
(g5
S'\x87\x00\x00\x00\x00\x00\x00\x00'
p745
tp746
Rp747
g11
(g12
tp748
Rp749
g79
(lp750
g81
ag82
ag83
ag84
ag85
asg60
(lp751
g62
ag63
ag39
ag40
asg98
(lp752
g100
ag70
ag71
ag49
asg87
(lp753
g25
ag26
ag27
ag28
assg1
(g5
S'\x88\x00\x00\x00\x00\x00\x00\x00'
p754
tp755
Rp756
g11
(g12
tp757
Rp758
g177
(lp759
g179
ag63
ag64
asg197
(lp760
g26
ag27
ag145
assg1
(g5
S'\x89\x00\x00\x00\x00\x00\x00\x00'
p761
tp762
Rp763
g11
(g12
tp764
Rp765
g120
(lp766
g63
ag64
ag38
ag39
ag40
asS'4'
p767
(lp768
g70
ag71
ag49
asg52
(lp769
g54
ag25
ag26
ag27
assg1
(g5
S'\x8a\x00\x00\x00\x00\x00\x00\x00'
p770
tp771
Rp772
g11
(g12
tp773
Rp774
g60
(lp775
g62
ag338
ag64
ag38
ag39
ag40
asg15
(lp776
g17
ag18
ag19
ag20
ag21
assg1
(g5
S'\x8b\x00\x00\x00\x00\x00\x00\x00'
p777
tp778
Rp779
g11
(g12
tp780
Rp781
sg1
(g5
S'\x8d\x00\x00\x00\x00\x00\x00\x00'
p782
tp783
Rp784
g11
(g12
tp785
Rp786
g79
(lp787
g81
ag82
ag83
ag84
ag85
asg177
(lp788
g179
ag36
ag64
ag38
ag39
ag40
asg87
(lp789
g25
ag26
ag27
ag28
assg1
(g5
S'\x8e\x00\x00\x00\x00\x00\x00\x00'
p790
tp791
Rp792
g11
(g12
tp793
Rp794
g60
(lp795
g62
ag63
ag64
assg1
(g5
S'\x8f\x00\x00\x00\x00\x00\x00\x00'
p796
tp797
Rp798
g11
(g12
tp799
Rp800
g94
(lp801
g96
ag62
ag63
ag64
ag39
ag40
asg446
(lp802
g49
assg1
(g5
S'\x90\x00\x00\x00\x00\x00\x00\x00'
p803
tp804
Rp805
g11
(g12
tp806
Rp807
g197
(lp808
g26
ag27
ag28
assg1
(g5
S'\x91\x00\x00\x00\x00\x00\x00\x00'
p809
tp810
Rp811
g11
(g12
tp812
Rp813
g177
(lp814
g179
ag63
ag64
ag38
ag39
ag40
asg109
(lp815
g69
ag70
ag71
ag49
asg391
(lp816
g277
ag27
ag145
assg1
(g5
S'\x92\x00\x00\x00\x00\x00\x00\x00'
p817
tp818
Rp819
g11
(g12
tp820
Rp821
sg1
(g5
S'\x93\x00\x00\x00\x00\x00\x00\x00'
p822
tp823
Rp824
g11
(g12
tp825
Rp826
g60
(lp827
g62
ag36
ag64
asg15
(lp828
g17
ag19
ag20
ag21
asg22
(lp829
g24
assg1
(g5
S'\x94\x00\x00\x00\x00\x00\x00\x00'
p830
tp831
Rp832
g11
(g12
tp833
Rp834
g79
(lp835
g81
ag82
ag83
ag84
ag85
asS'5'
p836
(lp837
S'2'
p838
ag63
ag506
ag38
ag39
ag40
asg15
(lp839
g17
ag18
ag51
ag19
ag20
ag21
assg1
(g5
S'\x95\x00\x00\x00\x00\x00\x00\x00'
p840
tp841
Rp842
g11
(g12
tp843
Rp844
g79
(lp845
g81
ag82
ag83
ag84
ag85
asg60
(lp846
g62
ag36
ag64
ag38
ag39
ag40
asg15
(lp847
g17
ag18
ag51
ag19
ag20
ag21
assg1
(g5
S'\x96\x00\x00\x00\x00\x00\x00\x00'
p848
tp849
Rp850
g11
(g12
tp851
Rp852
g60
(lp853
g62
ag63
ag64
ag38
ag39
ag40
asg309
(lp854
g27
ag145
assg1
(g5
S'\x97\x00\x00\x00\x00\x00\x00\x00'
p855
tp856
Rp857
g11
(g12
tp858
Rp859
g79
(lp860
g81
ag82
ag83
ag84
ag85
asg488
(lp861
g18
ag19
ag20
ag21
asg87
(lp862
g25
ag26
ag27
ag28
assg1
(g5
S'\x98\x00\x00\x00\x00\x00\x00\x00'
p863
tp864
Rp865
g11
(g12
tp866
Rp867
g79
(lp868
g81
ag82
ag83
ag84
ag85
asg60
(lp869
g62
ag63
ag64
ag38
ag39
ag40
asg46
(lp870
g48
ag66
ag67
ag68
ag69
ag70
ag71
ag328
asg87
(lp871
g25
ag26
ag27
assg1
(g5
S'\x99\x00\x00\x00\x00\x00\x00\x00'
p872
tp873
Rp874
g11
(g12
tp875
Rp876
g60
(lp877
g62
ag63
ag64
ag38
ag39
ag40
asg15
(lp878
g17
ag18
ag248
ag19
ag20
ag21
asg22
(lp879
g24
ag25
ag26
ag27
ag145
assg1
(g5
S'\x9a\x00\x00\x00\x00\x00\x00\x00'
p880
tp881
Rp882
g11
(g12
tp883
Rp884
g120
(lp885
g63
ag64
ag38
ag39
ag40
asg488
(lp886
g18
ag51
ag20
ag21
assg1
(g5
S'\x9b\x00\x00\x00\x00\x00\x00\x00'
p887
tp888
Rp889
g11
(g12
tp890
Rp891
g571
(lp892
g82
asg111
(lp893
g113
ag18
ag51
ag19
ag20
ag21
asg197
(lp894
g26
ag27
ag28
assg1
(g5
S'\x9c\x00\x00\x00\x00\x00\x00\x00'
p895
tp896
Rp897
g11
(g12
tp898
Rp899
g109
(lp900
g69
ag70
ag71
aS'9'
p901
asg488
(lp902
g18
ag21
asg87
(lp903
g25
ag26
ag27
ag28
assg1
(g5
S'\x9d\x00\x00\x00\x00\x00\x00\x00'
p904
tp905
Rp906
g11
(g12
tp907
Rp908
g60
(lp909
g62
ag63
ag64
ag38
ag39
ag40
asg52
(lp910
g54
ag25
ag26
ag27
ag28
assg1
(g5
S'\x9f\x00\x00\x00\x00\x00\x00\x00'
p911
tp912
Rp913
g11
(g12
tp914
Rp915
g79
(lp916
g81
ag82
ag83
ag84
ag85
asg94
(lp917
g96
ag62
ag63
ag64
ag38
ag40
asg22
(lp918
g24
ag26
ag27
ag28
assg1
(g5
S'\xa0\x00\x00\x00\x00\x00\x00\x00'
p919
tp920
Rp921
g11
(g12
tp922
Rp923
g79
(lp924
g81
ag82
ag83
ag84
ag85
asg580
(lp925
g97
ag63
ag64
ag38
ag39
ag40
asg22
(lp926
g24
ag25
ag26
ag27
ag28
assg1
(g5
S'\xa1\x00\x00\x00\x00\x00\x00\x00'
p927
tp928
Rp929
g11
(g12
tp930
Rp931
g580
(lp932
g97
ag63
ag64
ag38
ag39
ag40
asg109
(lp933
g69
ag70
ag71
ag49
asg111
(lp934
g113
ag18
ag51
ag19
ag20
ag21
assg1
(g5
S'\xa2\x00\x00\x00\x00\x00\x00\x00'
p935
tp936
Rp937
g11
(g12
tp938
Rp939
g15
(lp940
g17
ag18
ag20
ag21
assg1
(g5
S'\xa3\x00\x00\x00\x00\x00\x00\x00'
p941
tp942
Rp943
g11
(g12
tp944
Rp945
g79
(lp946
g81
ag82
ag83
ag84
ag85
asg120
(lp947
g63
ag64
ag38
ag39
ag40
asg15
(lp948
g17
ag18
ag51
ag19
ag20
ag21
assg1
(g5
S'\xa4\x00\x00\x00\x00\x00\x00\x00'
p949
tp950
Rp951
g11
(g12
tp952
Rp953
g79
(lp954
g81
ag82
ag83
ag84
ag85
asg60
(lp955
g62
ag63
ag64
ag38
ag39
ag40
asg399
(lp956
g68
ag69
ag70
ag71
ag49
asg15
(lp957
g17
ag18
ag51
ag19
ag20
ag21
assg1
(g5
S'\xa5\x00\x00\x00\x00\x00\x00\x00'
p958
tp959
Rp960
g11
(g12
tp961
Rp962
g79
(lp963
g81
ag82
ag83
ag84
ag85
asg120
(lp964
g63
ag64
ag38
ag39
ag40
asS'4'
p965
(lp966
g71
ag49
asg87
(lp967
g25
ag26
ag27
ag145
assg1
(g5
S'\xa6\x00\x00\x00\x00\x00\x00\x00'
p968
tp969
Rp970
g11
(g12
tp971
Rp972
g79
(lp973
g81
ag82
ag83
ag84
ag85
asg60
(lp974
g62
ag63
ag64
ag38
ag39
ag40
asg46
(lp975
g48
ag134
ag69
ag70
ag71
ag49
asg15
(lp976
g17
ag18
ag19
ag20
ag21
assg1
(g5
S'\xa7\x00\x00\x00\x00\x00\x00\x00'
p977
tp978
Rp979
g11
(g12
tp980
Rp981
g468
(lp982
g39
ag40
asg132
(lp983
g66
ag67
ag68
ag69
ag70
ag71
ag328
asg111
(lp984
g113
ag17
ag18
ag19
ag20
ag21
assg1
(g5
S'\xa8\x00\x00\x00\x00\x00\x00\x00'
p985
tp986
Rp987
g11
(g12
tp988
Rp989
g60
(lp990
g62
ag63
ag64
ag38
asg109
(lp991
g69
ag70
ag71
ag49
asg87
(lp992
g25
ag26
ag27
ag145
assg1
(g5
S'\xa9\x00\x00\x00\x00\x00\x00\x00'
p993
tp994
Rp995
g11
(g12
tp996
Rp997
g177
(lp998
g179
ag63
ag64
ag38
ag257
ag40
asg109
(lp999
g69
ag70
ag71
ag49
asg111
(lp1000
g113
ag17
ag18
ag19
ag20
ag21
asg87
(lp1001
g25
ag26
ag27
assg1
(g5
S'\xaa\x00\x00\x00\x00\x00\x00\x00'
p1002
tp1003
Rp1004
g11
(g12
tp1005
Rp1006
g571
(lp1007
g82
ag83
ag84
asg111
(lp1008
g113
ag18
ag248
ag19
ag20
ag21
asg52
(lp1009
g54
ag25
ag277
ag27
ag145
assg1
(g5
S'\xab\x00\x00\x00\x00\x00\x00\x00'
p1010
tp1011
Rp1012
g11
(g12
tp1013
Rp1014
g79
(lp1015
g81
ag82
ag83
ag84
ag85
asg120
(lp1016
g63
ag64
ag38
ag39
ag40
asg309
(lp1017
g27
ag145
assg1
(g5
S'\xae\x00\x00\x00\x00\x00\x00\x00'
p1018
tp1019
Rp1020
g11
(g12
tp1021
Rp1022
g175
(lp1023
g83
ag84
ag85
asg508
(lp1024
g19
ag20
ag21
assg1
(g5
S'\xb2\x00\x00\x00\x00\x00\x00\x00'
p1025
tp1026
Rp1027
g11
(g12
tp1028
Rp1029
g580
(lp1030
g97
ag63
ag37
ag38
ag39
asS'4'
p1031
(lp1032
S'1'
p1033
ag66
ag318
ag70
asg52
(lp1034
g54
ag25
ag27
ag28
assg1
(g5
S'\xb4\x00\x00\x00\x00\x00\x00\x00'
p1035
tp1036
Rp1037
g11
(g12
tp1038
Rp1039
sg1
(g5
S'\xb5\x00\x00\x00\x00\x00\x00\x00'
p1040
tp1041
Rp1042
g11
(g12
tp1043
Rp1044
g60
(lp1045
g62
ag63
ag64
ag38
ag39
ag40
assg1
(g5
S'\xb6\x00\x00\x00\x00\x00\x00\x00'
p1046
tp1047
Rp1048
g11
(g12
tp1049
Rp1050
g79
(lp1051
g81
ag82
ag657
ag83
ag84
asg94
(lp1052
g96
ag63
ag64
asg15
(lp1053
g17
ag51
ag21
assg1
(g5
S'\xb7\x00\x00\x00\x00\x00\x00\x00'
p1054
tp1055
Rp1056
g11
(g12
tp1057
Rp1058
g132
(lp1059
g66
ag67
ag68
ag70
ag71
ag49
asg111
(lp1060
g113
ag18
ag51
ag19
ag20
ag21
assg1
(g5
S'\xb8\x00\x00\x00\x00\x00\x00\x00'
p1061
tp1062
Rp1063
g11
(g12
tp1064
Rp1065
g109
(lp1066
g69
ag70
ag71
ag49
assg1
(g5
S'\xb9\x00\x00\x00\x00\x00\x00\x00'
p1067
tp1068
Rp1069
g11
(g12
tp1070
Rp1071
g60
(lp1072
g62
ag63
ag64
ag38
ag39
ag40
assg1
(g5
S'\xba\x00\x00\x00\x00\x00\x00\x00'
p1073
tp1074
Rp1075
g11
(g12
tp1076
Rp1077
g79
(lp1078
g81
ag82
ag83
asg60
(lp1079
g62
ag36
ag64
aS'5'
p1080
ag39
ag40
assg1
(g5
S'\xbb\x00\x00\x00\x00\x00\x00\x00'
p1081
tp1082
Rp1083
g11
(g12
tp1084
Rp1085
g94
(lp1086
g96
ag62
ag63
asg197
(lp1087
g26
ag27
assg1
(g5
S'\xbc\x00\x00\x00\x00\x00\x00\x00'
p1088
tp1089
Rp1090
g11
(g12
tp1091
Rp1092
g177
(lp1093
g179
ag63
ag64
ag38
ag39
ag40
assg1
(g5
S'\xbd\x00\x00\x00\x00\x00\x00\x00'
p1094
tp1095
Rp1096
g11
(g12
tp1097
Rp1098
g94
(lp1099
g96
ag36
ag64
ag38
ag39
ag40
asg22
(lp1100
g24
ag54
ag27
ag28
assg1
(g5
S'\xbe\x00\x00\x00\x00\x00\x00\x00'
p1101
tp1102
Rp1103
g11
(g12
tp1104
Rp1105
g177
(lp1106
g179
ag63
ag64
ag38
ag39
ag40
asg132
(lp1107
g66
ag67
ag68
ag69
ag70
ag71
ag49
assg1
(g5
S'\xc1\x00\x00\x00\x00\x00\x00\x00'
p1108
tp1109
Rp1110
g11
(g12
tp1111
Rp1112
g52
(lp1113
g54
ag25
ag277
ag27
ag28
assg1
(g5
S'\xc2\x00\x00\x00\x00\x00\x00\x00'
p1114
tp1115
Rp1116
g11
(g12
tp1117
Rp1118
g79
(lp1119
g81
ag82
ag83
ag84
asg94
(lp1120
g96
ag62
ag338
ag64
ag39
ag284
asg111
(lp1121
g113
ag17
ag51
ag19
ag20
ag21
asg309
(lp1122
g27
assg1
(g5
S'\xc3\x00\x00\x00\x00\x00\x00\x00'
p1123
tp1124
Rp1125
g11
(g12
tp1126
Rp1127
g79
(lp1128
g81
ag82
ag83
ag84
asg94
(lp1129
g96
ag338
ag37
ag38
ag40
asg15
(lp1130
g17
ag51
ag19
ag20
ag21
assg1
(g5
S'\xc6\x00\x00\x00\x00\x00\x00\x00'
p1131
tp1132
Rp1133
g11
(g12
tp1134
Rp1135
sg1
(g5
S'\xc7\x00\x00\x00\x00\x00\x00\x00'
p1136
tp1137
Rp1138
g11
(g12
tp1139
Rp1140
g120
(lp1141
g63
ag64
asg109
(lp1142
g69
ag70
ag71
ag49
asg488
(lp1143
g18
ag19
ag20
ag21
assg1
(g5
S'\xc8\x00\x00\x00\x00\x00\x00\x00'
p1144
tp1145
Rp1146
g11
(g12
tp1147
Rp1148
sg1
(g5
S'\xc9\x00\x00\x00\x00\x00\x00\x00'
p1149
tp1150
Rp1151
g11
(g12
tp1152
Rp1153
g60
(lp1154
g62
ag63
ag64
ag38
ag39
ag40
assg1
(g5
S'\xcb\x00\x00\x00\x00\x00\x00\x00'
p1155
tp1156
Rp1157
g11
(g12
tp1158
Rp1159
g87
(lp1160
g25
ag26
ag27
ag28
assg1
(g5
S'\xcc\x00\x00\x00\x00\x00\x00\x00'
p1161
tp1162
Rp1163
g11
(g12
tp1164
Rp1165
g79
(lp1166
g81
ag82
ag83
ag84
asg122
(lp1167
g51
ag21
asg87
(lp1168
g25
ag26
ag27
ag28
assg1
(g5
S'\xcd\x00\x00\x00\x00\x00\x00\x00'
p1169
tp1170
Rp1171
g11
(g12
tp1172
Rp1173
g15
(lp1174
g17
ag18
ag19
ag20
ag21
assg1
(g5
S'\xce\x00\x00\x00\x00\x00\x00\x00'
p1175
tp1176
Rp1177
g11
(g12
tp1178
Rp1179
g580
(lp1180
g97
ag36
ag64
asg197
(lp1181
g26
ag27
ag145
assg1
(g5
S'\xcf\x00\x00\x00\x00\x00\x00\x00'
p1182
tp1183
Rp1184
g11
(g12
tp1185
Rp1186
g79
(lp1187
g81
ag82
ag83
ag84
ag85
asg94
(lp1188
g96
ag62
ag63
ag64
ag40
asg109
(lp1189
g69
ag70
ag71
ag49
asg87
(lp1190
g25
ag26
ag27
ag28
assg1
(g5
S'\xd1\x00\x00\x00\x00\x00\x00\x00'
p1191
tp1192
Rp1193
g11
(g12
tp1194
Rp1195
g60
(lp1196
g62
ag63
ag64
ag38
ag39
ag40
asg15
(lp1197
g17
ag18
ag51
ag19
ag20
ag21
assg1
(g5
S'\xd3\x00\x00\x00\x00\x00\x00\x00'
p1198
tp1199
Rp1200
g11
(g12
tp1201
Rp1202
g60
(lp1203
g62
ag63
ag64
ag38
ag39
ag40
asg111
(lp1204
g113
ag17
ag18
ag51
ag19
ag20
asg197
(lp1205
g26
ag27
ag28
assg1
(g5
S'\xd4\x00\x00\x00\x00\x00\x00\x00'
p1206
tp1207
Rp1208
g11
(g12
tp1209
Rp1210
g221
(lp1211
g64
ag38
ag39
ag40
asg109
(lp1212
g69
ag71
ag49
asg87
(lp1213
g25
ag26
ag27
ag145
assg1
(g5
S'\xd6\x00\x00\x00\x00\x00\x00\x00'
p1214
tp1215
Rp1216
g11
(g12
tp1217
Rp1218
g175
(lp1219
g83
ag84
asg60
(lp1220
g62
ag63
ag64
ag38
ag39
ag40
asg309
(lp1221
g27
assg1
(g5
S'\xd7\x00\x00\x00\x00\x00\x00\x00'
p1222
tp1223
Rp1224
g11
(g12
tp1225
Rp1226
sg1
(g5
S'\xd8\x00\x00\x00\x00\x00\x00\x00'
p1227
tp1228
Rp1229
g11
(g12
tp1230
Rp1231
g177
(lp1232
g179
ag63
ag64
ag38
ag39
ag40
asg46
(lp1233
g48
ag67
ag69
ag70
ag71
ag49
asg197
(lp1234
g26
ag27
ag145
assg1
(g5
S'\xd9\x00\x00\x00\x00\x00\x00\x00'
p1235
tp1236
Rp1237
g11
(g12
tp1238
Rp1239
sg1
(g5
S'\xdb\x00\x00\x00\x00\x00\x00\x00'
p1240
tp1241
Rp1242
g11
(g12
tp1243
Rp1244
g79
(lp1245
g81
ag82
ag83
ag84
asg60
(lp1246
g62
ag338
ag64
assg1
(g5
S'\xdc\x00\x00\x00\x00\x00\x00\x00'
p1247
tp1248
Rp1249
g11
(g12
tp1250
Rp1251
g79
(lp1252
g81
ag82
ag83
ag84
ag85
asg60
(lp1253
g62
ag63
ag38
ag39
ag40
asg46
(lp1254
g48
ag66
ag67
ag68
ag69
ag70
ag71
ag49
asg15
(lp1255
g17
ag18
asg309
(lp1256
g27
ag28
assg1
(g5
S'\xdd\x00\x00\x00\x00\x00\x00\x00'
p1257
tp1258
Rp1259
g11
(g12
tp1260
Rp1261
g94
(lp1262
g96
ag62
ag63
ag64
asg132
(lp1263
g66
ag67
ag68
ag69
ag70
ag71
ag49
asg111
(lp1264
g113
ag18
ag51
ag19
ag20
ag21
assg1
(g5
S'\xde\x00\x00\x00\x00\x00\x00\x00'
p1265
tp1266
Rp1267
g11
(g12
tp1268
Rp1269
g79
(lp1270
g81
ag82
ag83
asg109
(lp1271
g69
ag70
ag71
ag49
asg111
(lp1272
g113
ag18
ag51
ag19
ag20
ag21
assg1
(g5
S'\xe0\x00\x00\x00\x00\x00\x00\x00'
p1273
tp1274
Rp1275
g11
(g12
tp1276
Rp1277
g120
(lp1278
g63
ag64
ag38
ag39
ag40
asg46
(lp1279
g48
ag66
ag318
ag134
ag69
ag70
ag71
ag328
asg111
(lp1280
g113
ag17
ag51
ag19
ag20
ag21
asg87
(lp1281
g25
ag26
ag27
ag28
assg1
(g5
S'\xe1\x00\x00\x00\x00\x00\x00\x00'
p1282
tp1283
Rp1284
g11
(g12
tp1285
Rp1286
g79
(lp1287
g81
ag82
ag83
ag84
ag85
asg109
(lp1288
g69
ag71
asg508
(lp1289
g19
ag20
ag21
asg197
(lp1290
g26
ag27
ag28
assg1
(g5
S'\xe2\x00\x00\x00\x00\x00\x00\x00'
p1291
tp1292
Rp1293
g11
(g12
tp1294
Rp1295
g94
(lp1296
g96
ag179
ag63
ag64
ag257
ag40
asS'4'
p1297
(lp1298
g167
ag71
ag49
asg15
(lp1299
g17
ag18
ag51
ag19
ag20
ag21
asg197
(lp1300
g26
ag27
ag28
assg1
(g5
S'\xe3\x00\x00\x00\x00\x00\x00\x00'
p1301
tp1302
Rp1303
g11
(g12
tp1304
Rp1305
g175
(lp1306
g83
ag84
ag85
asg87
(lp1307
g25
ag26
assg1
(g5
S'\xe4\x00\x00\x00\x00\x00\x00\x00'
p1308
tp1309
Rp1310
g11
(g12
tp1311
Rp1312
g94
(lp1313
g96
ag63
ag64
ag38
ag39
ag40
assg1
(g5
S'\xe5\x00\x00\x00\x00\x00\x00\x00'
p1314
tp1315
Rp1316
g11
(g12
tp1317
Rp1318
g79
(lp1319
g81
ag82
ag83
assg1
(g5
S'\xe6\x00\x00\x00\x00\x00\x00\x00'
p1320
tp1321
Rp1322
g11
(g12
tp1323
Rp1324
g60
(lp1325
g62
ag63
ag64
ag38
ag39
ag40
assg1
(g5
S'\xe7\x00\x00\x00\x00\x00\x00\x00'
p1326
tp1327
Rp1328
g11
(g12
tp1329
Rp1330
g60
(lp1331
g62
ag63
ag64
assg1
(g5
S'\xe8\x00\x00\x00\x00\x00\x00\x00'
p1332
tp1333
Rp1334
g11
(g12
tp1335
Rp1336
sg1
(g5
S'\xea\x00\x00\x00\x00\x00\x00\x00'
p1337
tp1338
Rp1339
g11
(g12
tp1340
Rp1341
g177
(lp1342
g179
ag63
ag64
ag38
ag39
ag284
asg109
(lp1343
g69
ag70
ag71
ag328
asg87
(lp1344
g25
ag26
ag27
ag28
assg1
(g5
S'\xec\x00\x00\x00\x00\x00\x00\x00'
p1345
tp1346
Rp1347
g11
(g12
tp1348
Rp1349
g79
(lp1350
g81
ag82
ag83
ag84
asg767
(lp1351
g70
ag71
asg111
(lp1352
g113
ag18
ag51
ag19
ag20
ag21
assg1
(g5
S'\xed\x00\x00\x00\x00\x00\x00\x00'
p1353
tp1354
Rp1355
g11
(g12
tp1356
Rp1357
g175
(lp1358
g83
ag84
ag85
asg197
(lp1359
g26
ag27
ag28
assg1
(g5
S'\xee\x00\x00\x00\x00\x00\x00\x00'
p1360
tp1361
Rp1362
g11
(g12
tp1363
Rp1364
g221
(lp1365
g64
ag38
ag39
ag40
asg109
(lp1366
g69
ag70
ag71
ag49
asg111
(lp1367
g113
ag18
ag51
ag19
ag20
ag21
asg87
(lp1368
g25
ag26
ag27
ag28
assg1
(g5
S'\xf0\x00\x00\x00\x00\x00\x00\x00'
p1369
tp1370
Rp1371
g11
(g12
tp1372
Rp1373
g94
(lp1374
g96
ag62
ag64
ag38
ag257
ag284
asg767
(lp1375
g70
ag71
ag49
assg1
(g5
S'\xf1\x00\x00\x00\x00\x00\x00\x00'
p1376
tp1377
Rp1378
g11
(g12
tp1379
Rp1380
g175
(lp1381
g83
ag84
asg580
(lp1382
g97
ag63
ag64
ag38
ag39
ag40
asg132
(lp1383
g66
ag70
ag71
ag49
asg197
(lp1384
g26
ag27
assg1
(g5
S'\xf2\x00\x00\x00\x00\x00\x00\x00'
p1385
tp1386
Rp1387
g11
(g12
tp1388
Rp1389
g15
(lp1390
g17
ag18
ag51
ag19
ag20
ag21
assg1
(g5
S'\xf4\x00\x00\x00\x00\x00\x00\x00'
p1391
tp1392
Rp1393
g11
(g12
tp1394
Rp1395
g175
(lp1396
g83
ag84
ag85
asg120
(lp1397
g63
ag64
ag38
ag39
ag40
assg1
(g5
S'\xf5\x00\x00\x00\x00\x00\x00\x00'
p1398
tp1399
Rp1400
g11
(g12
tp1401
Rp1402
g79
(lp1403
g81
ag82
ag83
ag84
asg60
(lp1404
g62
ag36
ag64
ag38
ag39
ag40
asg109
(lp1405
g69
ag70
ag71
ag49
asg15
(lp1406
g17
ag18
ag51
ag19
ag20
ag21
assg1
(g5
S'\xf6\x00\x00\x00\x00\x00\x00\x00'
p1407
tp1408
Rp1409
g11
(g12
tp1410
Rp1411
g79
(lp1412
g81
ag82
ag83
ag84
asg132
(lp1413
g66
ag67
ag69
asg197
(lp1414
g26
ag27
ag28
assg1
(g5
S'\xf7\x00\x00\x00\x00\x00\x00\x00'
p1415
tp1416
Rp1417
g11
(g12
tp1418
Rp1419
g79
(lp1420
g81
ag82
ag83
ag84
ag85
asg60
(lp1421
g62
ag63
ag64
ag38
ag39
ag40
asg965
(lp1422
g71
ag49
asg111
(lp1423
g113
ag17
ag51
ag19
ag20
ag21
assg1
(g5
S'\xf8\x00\x00\x00\x00\x00\x00\x00'
p1424
tp1425
Rp1426
g11
(g12
tp1427
Rp1428
g60
(lp1429
g62
ag338
ag64
ag1080
ag39
ag40
asg109
(lp1430
g69
ag70
ag71
ag49
asg52
(lp1431
g54
ag25
ag27
ag145
assg1
(g5
S'\xf9\x00\x00\x00\x00\x00\x00\x00'
p1432
tp1433
Rp1434
g11
(g12
tp1435
Rp1436
g177
(lp1437
g179
ag63
ag64
asg197
(lp1438
g26
ag27
ag28
assg1
(g5
S'\xfa\x00\x00\x00\x00\x00\x00\x00'
p1439
tp1440
Rp1441
g11
(g12
tp1442
Rp1443
g79
(lp1444
g81
ag82
ag83
ag84
ag85
asg60
(lp1445
g62
ag63
ag64
ag38
ag39
ag40
asg132
(lp1446
g66
ag67
asg111
(lp1447
g113
ag18
ag51
ag19
ag20
ag21
assg1
(g5
S'\xfb\x00\x00\x00\x00\x00\x00\x00'
p1448
tp1449
Rp1450
g11
(g12
tp1451
Rp1452
g79
(lp1453
g81
ag82
ag657
ag84
ag85
asg120
(lp1454
g63
ag64
ag38
ag39
ag40
asg15
(lp1455
g17
ag51
ag19
ag20
ag21
asg309
(lp1456
g27
ag145
assg1
(g5
S'\xfc\x00\x00\x00\x00\x00\x00\x00'
p1457
tp1458
Rp1459
g11
(g12
tp1460
Rp1461
g94
(lp1462
g96
ag62
ag63
ag64
ag39
ag40
assg1
(g5
S'\xfe\x00\x00\x00\x00\x00\x00\x00'
p1463
tp1464
Rp1465
g11
(g12
tp1466
Rp1467
g132
(lp1468
g66
ag67
ag68
ag69
ag70
ag71
ag49
assg1
(g5
S'\xff\x00\x00\x00\x00\x00\x00\x00'
p1469
tp1470
Rp1471
g11
(g12
tp1472
Rp1473
g79
(lp1474
g81
ag82
ag83
ag84
ag85
asg94
(lp1475
g96
ag97
ag63
ag64
ag39
ag40
asg15
(lp1476
g17
ag18
ag51
ag19
ag20
ag21
asg52
(lp1477
g54
ag288
ag277
assg1
(g5
S'\x00\x01\x00\x00\x00\x00\x00\x00'
p1478
tp1479
Rp1480
g11
(g12
tp1481
Rp1482
g221
(lp1483
g64
ag38
ag39
ag40
asg15
(lp1484
g17
ag18
ag248
ag19
ag20
ag21
assg1
(g5
S'\x01\x01\x00\x00\x00\x00\x00\x00'
p1485
tp1486
Rp1487
g11
(g12
tp1488
Rp1489
g79
(lp1490
g81
ag82
ag83
ag84
ag85
assg1
(g5
S'\x02\x01\x00\x00\x00\x00\x00\x00'
p1491
tp1492
Rp1493
g11
(g12
tp1494
Rp1495
g60
(lp1496
g62
ag63
ag64
ag38
ag39
ag40
asg309
(lp1497
g27
ag145
assg1
(g5
S'\x03\x01\x00\x00\x00\x00\x00\x00'
p1498
tp1499
Rp1500
g11
(g12
tp1501
Rp1502
g79
(lp1503
g81
ag82
ag83
ag84
ag85
asg94
(lp1504
g96
ag63
ag64
ag38
ag39
ag40
asg15
(lp1505
g17
ag18
ag51
ag19
ag20
ag21
asg22
(lp1506
g24
ag26
ag27
ag28
assg1
(g5
S'\x04\x01\x00\x00\x00\x00\x00\x00'
p1507
tp1508
Rp1509
g11
(g12
tp1510
Rp1511
g571
(lp1512
g82
ag83
ag84
ag85
asg60
(lp1513
g62
ag36
ag64
ag38
ag39
ag40
asg508
(lp1514
g19
ag20
ag21
asg52
(lp1515
g54
ag25
ag26
ag27
ag28
assg1
(g5
S'\x05\x01\x00\x00\x00\x00\x00\x00'
p1516
tp1517
Rp1518
g11
(g12
tp1519
Rp1520
g79
(lp1521
g81
ag83
ag84
ag85
asg177
(lp1522
g179
ag63
ag64
ag38
ag39
ag40
asg52
(lp1523
g54
ag25
ag26
ag27
ag145
assg1
(g5
S'\x08\x01\x00\x00\x00\x00\x00\x00'
p1524
tp1525
Rp1526
g11
(g12
tp1527
Rp1528
g175
(lp1529
g83
ag84
ag85
asg132
(lp1530
g66
ag67
ag68
ag69
ag70
ag71
ag49
asg15
(lp1531
g17
ag18
ag248
ag19
ag20
ag21
asg52
(lp1532
g54
ag25
ag277
ag27
ag145
assg1
(g5
S'\t\x01\x00\x00\x00\x00\x00\x00'
p1533
tp1534
Rp1535
g11
(g12
tp1536
Rp1537
g79
(lp1538
g81
ag82
ag83
ag84
ag85
asg94
(lp1539
g96
ag338
ag37
ag38
ag39
ag40
asg767
(lp1540
g70
ag71
ag49
asg111
(lp1541
g113
ag17
ag248
ag19
ag20
ag21
asg197
(lp1542
g26
ag27
ag28
assg1
(g5
S'\x0b\x01\x00\x00\x00\x00\x00\x00'
p1543
tp1544
Rp1545
g11
(g12
tp1546
Rp1547
g79
(lp1548
g81
ag82
ag83
asg177
(lp1549
g179
ag36
ag64
ag38
ag39
ag40
asg122
(lp1550
g51
ag19
ag20
ag21
asg87
(lp1551
g25
ag277
ag27
ag28
assg1
(g5
S'\x0c\x01\x00\x00\x00\x00\x00\x00'
p1552
tp1553
Rp1554
g11
(g12
tp1555
Rp1556
g79
(lp1557
g81
ag82
ag83
ag84
asg221
(lp1558
g64
ag38
ag39
ag40
asg132
(lp1559
g66
ag67
ag134
ag69
ag167
ag71
ag49
asg111
(lp1560
g113
ag17
ag51
ag19
ag20
ag21
assg1
(g5
S'\r\x01\x00\x00\x00\x00\x00\x00'
p1561
tp1562
Rp1563
g11
(g12
tp1564
Rp1565
g177
(lp1566
g179
ag63
ag64
ag38
asg132
(lp1567
g66
asg111
(lp1568
g113
ag17
ag18
ag20
ag21
asS'6'
p1569
(lp1570
S'2'
p1571
ag25
ag26
ag27
assg1
(g5
S'\x0e\x01\x00\x00\x00\x00\x00\x00'
p1572
tp1573
Rp1574
g11
(g12
tp1575
Rp1576
g79
(lp1577
g81
ag82
ag83
ag84
ag85
asg177
(lp1578
g179
ag63
ag37
ag38
ag39
ag40
asg87
(lp1579
g25
ag26
ag27
ag28
assg1
(g5
S'\x0f\x01\x00\x00\x00\x00\x00\x00'
p1580
tp1581
Rp1582
g11
(g12
tp1583
Rp1584
g177
(lp1585
g179
ag63
ag64
ag38
ag39
ag40
asS'4'
p1586
(lp1587
g134
ag69
ag70
ag71
asg391
(lp1588
g277
ag27
ag28
assg1
(g5
S'\x10\x01\x00\x00\x00\x00\x00\x00'
p1589
tp1590
Rp1591
g11
(g12
tp1592
Rp1593
sg1
(g5
S'\x11\x01\x00\x00\x00\x00\x00\x00'
p1594
tp1595
Rp1596
g11
(g12
tp1597
Rp1598
g60
(lp1599
g62
ag338
ag37
asg309
(lp1600
g27
ag28
assg1
(g5
S'\x14\x01\x00\x00\x00\x00\x00\x00'
p1601
tp1602
Rp1603
g11
(g12
tp1604
Rp1605
g120
(lp1606
g63
ag64
ag38
asg15
(lp1607
g17
ag18
ag51
ag19
ag20
ag21
assg1
(g5
S'\x15\x01\x00\x00\x00\x00\x00\x00'
p1608
tp1609
Rp1610
g11
(g12
tp1611
Rp1612
g94
(lp1613
g96
ag63
ag64
ag38
ag39
ag40
asg132
(lp1614
g66
ag67
ag69
ag70
ag71
ag49
asg15
(lp1615
g17
ag18
ag19
ag20
ag21
asg52
(lp1616
g54
ag25
ag277
ag27
ag145
assg1
(g5
S'\x16\x01\x00\x00\x00\x00\x00\x00'
p1617
tp1618
Rp1619
g11
(g12
tp1620
Rp1621
S'4'
p1622
(lp1623
g67
ag68
ag69
ag70
ag71
ag49
asg87
(lp1624
g25
ag26
ag27
ag145
assg1
(g5
S'\x18\x01\x00\x00\x00\x00\x00\x00'
p1625
tp1626
Rp1627
g11
(g12
tp1628
Rp1629
g767
(lp1630
g70
ag71
ag49
asg87
(lp1631
g25
ag28
assg1
(g5
S'\x19\x01\x00\x00\x00\x00\x00\x00'
p1632
tp1633
Rp1634
g11
(g12
tp1635
Rp1636
g79
(lp1637
g81
ag82
ag83
ag84
ag85
asg60
(lp1638
g62
ag63
ag64
ag38
ag39
ag40
asg109
(lp1639
g69
ag70
ag71
ag49
asg15
(lp1640
g17
ag18
ag51
ag19
ag20
ag21
asg52
(lp1641
g54
ag25
ag277
ag250
ag145
assg1
(g5
S'\x1a\x01\x00\x00\x00\x00\x00\x00'
p1642
tp1643
Rp1644
g11
(g12
tp1645
Rp1646
g15
(lp1647
g17
ag18
ag51
ag19
ag20
ag21
assg1
(g5
S'\x1b\x01\x00\x00\x00\x00\x00\x00'
p1648
tp1649
Rp1650
g11
(g12
tp1651
Rp1652
g175
(lp1653
g83
ag84
asg94
(lp1654
g96
ag36
ag64
ag38
ag39
ag40
asg15
(lp1655
g17
ag18
ag51
ag19
ag20
ag21
assg1
(g5
S'\x1c\x01\x00\x00\x00\x00\x00\x00'
p1656
tp1657
Rp1658
g11
(g12
tp1659
Rp1660
g580
(lp1661
g97
ag63
ag37
ag38
ag39
ag40
asg111
(lp1662
g113
ag18
ag51
ag19
ag20
ag21
assg1
(g5
S'\x1d\x01\x00\x00\x00\x00\x00\x00'
p1663
tp1664
Rp1665
g11
(g12
tp1666
Rp1667
g60
(lp1668
g62
ag63
ag64
ag38
ag39
ag40
asg109
(lp1669
g69
ag70
ag71
ag49
assg1
(g5
S'\x1e\x01\x00\x00\x00\x00\x00\x00'
p1670
tp1671
Rp1672
g11
(g12
tp1673
Rp1674
g177
(lp1675
g179
ag338
ag38
assg1
(g5
S'\x1f\x01\x00\x00\x00\x00\x00\x00'
p1676
tp1677
Rp1678
g11
(g12
tp1679
Rp1680
g132
(lp1681
g66
ag67
ag390
ag69
ag70
ag71
ag49
asg15
(lp1682
g17
ag18
ag51
ag19
ag20
ag21
assg1
(g5
S'!\x01\x00\x00\x00\x00\x00\x00'
p1683
tp1684
Rp1685
g11
(g12
tp1686
Rp1687
g60
(lp1688
g62
ag63
ag64
ag38
ag39
ag40
assg1
(g5
S'"\x01\x00\x00\x00\x00\x00\x00'
p1689
tp1690
Rp1691
g11
(g12
tp1692
Rp1693
g60
(lp1694
g62
ag63
ag64
ag38
ag39
ag40
asg111
(lp1695
g113
ag17
ag18
ag19
ag20
ag21
asg197
(lp1696
g26
ag27
ag145
assg1
(g5
S'#\x01\x00\x00\x00\x00\x00\x00'
p1697
tp1698
Rp1699
g11
(g12
tp1700
Rp1701
g177
(lp1702
g179
ag63
ag64
ag39
ag40
asg488
(lp1703
g18
ag51
ag19
ag20
ag21
asg87
(lp1704
g25
ag26
ag27
ag28
assg1
(g5
S'%\x01\x00\x00\x00\x00\x00\x00'
p1705
tp1706
Rp1707
g11
(g12
tp1708
Rp1709
g94
(lp1710
g96
asg132
(lp1711
g66
ag67
ag68
ag69
ag70
ag71
ag49
assg1
(g5
S'&\x01\x00\x00\x00\x00\x00\x00'
p1712
tp1713
Rp1714
g11
(g12
tp1715
Rp1716
g94
(lp1717
g96
ag179
ag64
ag38
ag39
ag40
asg132
(lp1718
g66
ag67
ag390
ag69
ag70
ag71
ag49
asg197
(lp1719
g26
ag27
ag28
assg1
(g5
S'(\x01\x00\x00\x00\x00\x00\x00'
p1720
tp1721
Rp1722
g11
(g12
tp1723
Rp1724
g177
(lp1725
g179
ag63
ag64
ag38
ag39
ag40
asg46
(lp1726
g48
ag69
ag70
ag71
ag49
assg1
(g5
S'*\x01\x00\x00\x00\x00\x00\x00'
p1727
tp1728
Rp1729
g11
(g12
tp1730
Rp1731
g79
(lp1732
g81
ag82
ag83
ag84
ag85
asg221
(lp1733
g64
ag38
ag39
ag40
asg46
(lp1734
g48
ag69
ag70
ag71
ag49
asg15
(lp1735
g17
ag18
ag51
ag19
ag20
ag21
assg1
(g5
S'+\x01\x00\x00\x00\x00\x00\x00'
p1736
tp1737
Rp1738
g11
(g12
tp1739
Rp1740
g79
(lp1741
g81
ag82
ag83
ag84
ag85
asg94
(lp1742
g96
ag179
ag63
ag37
ag39
ag40
asg46
(lp1743
g48
ag66
ag67
ag68
ag69
ag70
ag71
ag49
assg1
(g5
S'-\x01\x00\x00\x00\x00\x00\x00'
p1744
tp1745
Rp1746
g11
(g12
tp1747
Rp1748
g120
(lp1749
g63
ag37
ag38
ag39
ag40
assg1
(g5
S'.\x01\x00\x00\x00\x00\x00\x00'
p1750
tp1751
Rp1752
g11
(g12
tp1753
Rp1754
g79
(lp1755
g81
ag82
ag83
ag85
asg94
(lp1756
g96
ag179
ag63
ag64
ag39
ag40
asg15
(lp1757
g17
ag18
ag19
ag20
ag21
assg1
(g5
S'/\x01\x00\x00\x00\x00\x00\x00'
p1758
tp1759
Rp1760
g11
(g12
tp1761
Rp1762
g79
(lp1763
g81
ag82
ag83
ag84
ag85
asg109
(lp1764
g69
ag70
ag71
ag49
assg1
(g5
S'0\x01\x00\x00\x00\x00\x00\x00'
p1765
tp1766
Rp1767
g11
(g12
tp1768
Rp1769
g446
(lp1770
g49
assg1
(g5
S'1\x01\x00\x00\x00\x00\x00\x00'
p1771
tp1772
Rp1773
g11
(g12
tp1774
Rp1775
g571
(lp1776
g82
ag83
ag84
ag85
asg580
(lp1777
g97
ag36
ag37
ag38
ag39
ag40
asg111
(lp1778
g113
ag17
ag18
ag19
ag20
ag21
asg87
(lp1779
g25
ag26
ag27
assg1
(g5
S'2\x01\x00\x00\x00\x00\x00\x00'
p1780
tp1781
Rp1782
g11
(g12
tp1783
Rp1784
g79
(lp1785
g81
ag82
ag83
ag84
ag85
asg60
(lp1786
g62
ag63
ag64
ag38
ag39
ag40
assg1
(g5
S'3\x01\x00\x00\x00\x00\x00\x00'
p1787
tp1788
Rp1789
g11
(g12
tp1790
Rp1791
g79
(lp1792
g81
ag82
ag83
ag84
ag85
asS'4'
p1793
(lp1794
S'2'
p1795
asg488
(lp1796
g18
ag19
ag20
ag21
asg87
(lp1797
g25
ag277
ag27
ag28
assg1
(g5
S'4\x01\x00\x00\x00\x00\x00\x00'
p1798
tp1799
Rp1800
g11
(g12
tp1801
Rp1802
g60
(lp1803
g62
ag63
ag38
asg46
(lp1804
g48
ag66
ag67
ag68
ag69
ag70
ag71
ag49
asg111
(lp1805
g113
ag18
ag248
ag19
ag20
ag21
assg1
(g5
S'5\x01\x00\x00\x00\x00\x00\x00'
p1806
tp1807
Rp1808
g11
(g12
tp1809
Rp1810
g15
(lp1811
g17
assg1
(g5
S'6\x01\x00\x00\x00\x00\x00\x00'
p1812
tp1813
Rp1814
g11
(g12
tp1815
Rp1816
g46
(lp1817
g48
ag66
ag67
ag390
ag69
ag70
ag71
ag49
asg111
(lp1818
g113
ag18
ag248
ag19
ag20
ag21
assg1
(g5
S'8\x01\x00\x00\x00\x00\x00\x00'
p1819
tp1820
Rp1821
g11
(g12
tp1822
Rp1823
g109
(lp1824
g69
ag70
ag71
ag49
asg15
(lp1825
g17
ag18
ag51
ag19
ag20
ag21
assg1
(g5
S':\x01\x00\x00\x00\x00\x00\x00'
p1826
tp1827
Rp1828
g11
(g12
tp1829
Rp1830
g468
(lp1831
g39
ag40
asg691
(lp1832
g21
assg1
(g5
S';\x01\x00\x00\x00\x00\x00\x00'
p1833
tp1834
Rp1835
g11
(g12
tp1836
Rp1837
g79
(lp1838
g81
ag82
ag83
ag84
ag85
asg60
(lp1839
g62
ag63
ag64
ag38
ag39
ag40
asg132
(lp1840
g66
ag67
ag68
ag69
ag70
ag71
ag49
asg15
(lp1841
g17
ag18
ag51
ag19
ag20
ag21
assg1
(g5
S'<\x01\x00\x00\x00\x00\x00\x00'
p1842
tp1843
Rp1844
g11
(g12
tp1845
Rp1846
g79
(lp1847
g81
ag82
ag83
ag84
ag85
asg60
(lp1848
g62
ag63
ag64
ag38
ag39
ag40
asg111
(lp1849
g113
ag17
ag51
ag19
ag20
ag21
assg1
(g5
S'=\x01\x00\x00\x00\x00\x00\x00'
p1850
tp1851
Rp1852
g11
(g12
tp1853
Rp1854
g79
(lp1855
g81
ag82
asg177
(lp1856
g179
ag63
ag64
ag38
ag39
ag40
asg15
(lp1857
g17
ag18
ag51
ag19
ag20
ag21
asg22
(lp1858
g24
ag26
ag27
ag28
assg1
(g5
S'>\x01\x00\x00\x00\x00\x00\x00'
p1859
tp1860
Rp1861
g11
(g12
tp1862
Rp1863
g79
(lp1864
g81
ag82
ag83
ag84
asg60
(lp1865
g62
ag63
ag64
ag38
ag39
ag40
asg109
(lp1866
g69
ag70
ag71
ag49
assg1
(g5
S'@\x01\x00\x00\x00\x00\x00\x00'
p1867
tp1868
Rp1869
g11
(g12
tp1870
Rp1871
g221
(lp1872
g64
ag38
ag39
ag40
asg965
(lp1873
g71
asg52
(lp1874
g54
ag25
ag26
ag27
ag145
assg1
(g5
S'A\x01\x00\x00\x00\x00\x00\x00'
p1875
tp1876
Rp1877
g11
(g12
tp1878
Rp1879
g245
(lp1880
g37
ag38
ag39
ag40
asg122
(lp1881
g51
ag19
ag20
ag21
assg1
(g5
S'B\x01\x00\x00\x00\x00\x00\x00'
p1882
tp1883
Rp1884
g11
(g12
tp1885
Rp1886
g120
(lp1887
g63
ag64
ag38
ag39
ag40
asg197
(lp1888
g26
ag27
ag28
assg1
(g5
S'D\x01\x00\x00\x00\x00\x00\x00'
p1889
tp1890
Rp1891
g11
(g12
tp1892
Rp1893
g111
(lp1894
g113
ag18
ag51
ag19
ag20
ag21
asg22
(lp1895
g24
ag25
ag26
ag27
ag145
assg1
(g5
S'G\x01\x00\x00\x00\x00\x00\x00'
p1896
tp1897
Rp1898
g11
(g12
tp1899
Rp1900
g175
(lp1901
g83
ag84
ag85
asg94
(lp1902
g96
ag62
ag38
ag39
ag40
asg46
(lp1903
g48
ag66
ag67
ag68
ag69
ag70
ag71
ag328
asg87
(lp1904
g25
ag26
ag250
ag28
assg1
(g5
S'H\x01\x00\x00\x00\x00\x00\x00'
p1905
tp1906
Rp1907
g11
(g12
tp1908
Rp1909
g94
(lp1910
g96
ag179
ag64
ag39
ag40
asg109
(lp1911
g69
ag70
ag71
ag49
asg22
(lp1912
g24
ag25
assg1
(g5
S'I\x01\x00\x00\x00\x00\x00\x00'
p1913
tp1914
Rp1915
g11
(g12
tp1916
Rp1917
g46
(lp1918
g48
ag66
ag318
ag68
ag69
ag70
ag71
ag49
asg15
(lp1919
g17
ag18
ag51
ag19
ag20
assg1
(g5
S'J\x01\x00\x00\x00\x00\x00\x00'
p1920
tp1921
Rp1922
g11
(g12
tp1923
Rp1924
g60
(lp1925
g62
ag63
ag64
ag38
ag39
ag40
asg46
(lp1926
g48
ag66
ag67
ag68
ag69
ag70
ag71
ag49
asg15
(lp1927
g17
ag18
ag19
ag20
ag21
assg1
(g5
S'K\x01\x00\x00\x00\x00\x00\x00'
p1928
tp1929
Rp1930
g11
(g12
tp1931
Rp1932
g468
(lp1933
g39
ag40
asg22
(lp1934
g24
ag54
ag25
ag26
ag27
assg1
(g5
S'L\x01\x00\x00\x00\x00\x00\x00'
p1935
tp1936
Rp1937
g11
(g12
tp1938
Rp1939
g468
(lp1940
g39
ag40
asg46
(lp1941
g48
ag390
ag69
ag70
ag71
ag49
assg1
(g5
S'M\x01\x00\x00\x00\x00\x00\x00'
p1942
tp1943
Rp1944
g11
(g12
tp1945
Rp1946
g79
(lp1947
g81
ag82
ag83
ag84
asg836
(lp1948
g838
ag36
ag64
ag38
ag39
ag40
asg46
(lp1949
g48
ag66
ag67
ag68
ag69
ag70
ag71
ag49
asg111
(lp1950
g113
ag18
ag248
ag19
ag20
ag21
asg52
(lp1951
g54
ag25
ag27
ag28
assg1
(g5
S'O\x01\x00\x00\x00\x00\x00\x00'
p1952
tp1953
Rp1954
g11
(g12
tp1955
Rp1956
g79
(lp1957
g81
ag82
ag83
ag84
ag85
asg60
(lp1958
g62
ag63
ag64
ag38
ag39
ag40
asg1586
(lp1959
g134
ag69
ag70
ag71
ag49
asg15
(lp1960
g17
assg1
(g5
S'P\x01\x00\x00\x00\x00\x00\x00'
p1961
tp1962
Rp1963
g11
(g12
tp1964
Rp1965
g60
(lp1966
g62
ag63
ag64
ag38
ag39
ag40
asg111
(lp1967
g113
ag17
ag18
ag19
ag20
ag21
asg197
(lp1968
g26
ag27
ag145
assg1
(g5
S'Q\x01\x00\x00\x00\x00\x00\x00'
p1969
tp1970
Rp1971
g11
(g12
tp1972
Rp1973
g34
(lp1974
g36
ag64
ag38
ag39
ag40
asg488
(lp1975
g18
ag51
ag19
ag20
ag21
asg22
(lp1976
g24
ag25
ag26
ag27
ag28
assg1
(g5
S'S\x01\x00\x00\x00\x00\x00\x00'
p1977
tp1978
Rp1979
g11
(g12
tp1980
Rp1981
g94
(lp1982
g96
ag63
ag64
ag38
ag39
asg109
(lp1983
g69
asg111
(lp1984
g113
ag18
ag51
ag19
ag20
ag21
asg52
(lp1985
g54
ag25
ag26
ag27
ag145
assg1
(g5
S'T\x01\x00\x00\x00\x00\x00\x00'
p1986
tp1987
Rp1988
g11
(g12
tp1989
Rp1990
g79
(lp1991
g81
ag82
ag83
ag84
ag85
asg177
(lp1992
g179
ag63
ag64
ag38
ag39
ag40
asg22
(lp1993
g24
ag27
ag28
ass.